; Function Attrs: nounwind uwtable
define hidden ptr @SDL_GetTouchDeviceName_REAL(i64 noundef %0) local_unnamed_addr #2 {
  %2 = tail call ptr @SDL_GetTouch(i64 noundef %0)
  %.not = icmp eq ptr %2, null
  br i1 %.not, label %7, label %3

3:                                                ; preds = %1
  %4 = getelementptr inbounds nuw i8, ptr %2, i64 32
  %5 = load ptr, ptr %4, align 8
  %6 = tail call ptr @SDL_GetPersistentString(ptr noundef %5) #7
  br label %7

7:                                                ; preds = %1, %3
  %.0 = phi ptr [ %6, %3 ], [ null, %1 ]
  ret ptr %.0
}